; Function Attrs: mustprogress nofree norecurse nounwind willreturn memory(argmem: readwrite) uwtable
define dso_local void @_ZNSt3__112strstreambuf6__initEPclS1_(ptr noundef nonnull writeonly align 8 captures(none) dereferenceable(96) initializes((16, 40)) %0, ptr noundef %1, i64 noundef %2, ptr noundef %3) local_unnamed_addr #1 align 2 {
  %5 = icmp eq i64 %2, 0
  br i1 %5, label %6, label %8

6:                                                ; preds = %4
  %7 = tail call i64 @strlen(ptr noundef nonnull dereferenceable(1) %1) #19
  br label %10

8:                                                ; preds = %4
  %9 = icmp slt i64 %2, 0
  %spec.store.select = select i1 %9, i64 2147483647, i64 %2
  br label %10

10:                                               ; preds = %8, %6
  %.0 = phi i64 [ %7, %6 ], [ %spec.store.select, %8 ]
  %11 = icmp eq ptr %3, null
  br i1 %11, label %12, label %14

12:                                               ; preds = %10
  %13 = getelementptr inbounds i8, ptr %1, i64 %.0
  br label %19

14:                                               ; preds = %10
  %15 = getelementptr inbounds i8, ptr %3, i64 %.0
  %16 = getelementptr inbounds nuw i8, ptr %0, i64 48
  store ptr %3, ptr %16, align 8, !tbaa !20
  %17 = getelementptr inbounds nuw i8, ptr %0, i64 40
  store ptr %3, ptr %17, align 8, !tbaa !21
  %18 = getelementptr inbounds nuw i8, ptr %0, i64 56
  store ptr %15, ptr %18, align 8, !tbaa !22
  br label %19

19:                                               ; preds = %14, %12
  %.sink = phi ptr [ %13, %12 ], [ %3, %14 ]
  %20 = getelementptr inbounds nuw i8, ptr %0, i64 16
  store ptr %1, ptr %20, align 8, !tbaa !23
  %21 = getelementptr inbounds nuw i8, ptr %0, i64 24
  store ptr %1, ptr %21, align 8, !tbaa !24
  %22 = getelementptr inbounds nuw i8, ptr %0, i64 32
  store ptr %.sink, ptr %22, align 8, !tbaa !25
  ret void
}